target datalayout = "e-m:e-p270:32:32-p271:32:32-p272:64:64-i64:64-i128:128-f80:128-n8:16:32:64-S128"
target triple = "x86_64-pc-linux-gnu"

%struct.DdManager = type { %struct.DdNode, ptr, ptr, ptr, ptr, ptr, ptr, ptr, i32, i32, double, double, double, i32, i32, i32, i32, i32, i32, ptr, ptr, %struct.DdSubtable, i32, i32, i32, i32, i32, i32, i32, double, i32, i32, i32, ptr, i64, double, i32, ptr, ptr, ptr, ptr, ptr, ptr, ptr, i32, ptr, ptr, ptr, ptr, ptr, ptr, i32, i32, i32, double, i32, i32, i32, i32, double, double, i32, i32, i32, i32, i32, i32, i32, i32, i32, ptr, ptr, i32, i32, i32, i32, i32, i32, ptr, ptr, ptr, ptr, ptr, ptr, ptr, ptr, i32, i64, i64, i64, i32, i64, i64, double, double, double, double, double, double, i32, ptr, ptr, i64 }
%struct.DdNode = type { i32, i32, ptr, %union.anon, i64 }
%union.anon = type { %struct.DdChildren }
%struct.DdChildren = type { ptr, ptr }
%struct.DdSubtable = type { ptr, i32, i32, i32, i32, i32, i32, i32, i32, i32, i32, i32 }
%struct.DdGen = type { ptr, i32, i32, %union.anon.0, %struct.anon.3, ptr }
%union.anon.0 = type { %struct.anon }
%struct.anon = type { ptr, double }
%struct.anon.3 = type { i32, ptr }

; Function Attrs: nounwind uwtable
define i32 @Cudd_zddNextPath(ptr noundef %0, ptr noundef %1) #0 {
  %3 = alloca i32, align 4
  %4 = alloca ptr, align 8
  %5 = alloca ptr, align 8
  %6 = alloca ptr, align 8
  %7 = alloca ptr, align 8
  %8 = alloca ptr, align 8
  %9 = alloca ptr, align 8
  store ptr %0, ptr %4, align 8
  store ptr %1, ptr %5, align 8
  %10 = load ptr, ptr %4, align 8
  %11 = getelementptr inbounds %struct.DdGen, ptr %10, i32 0, i32 0
  %12 = load ptr, ptr %11, align 8
  store ptr %12, ptr %9, align 8
  br label %13

13:                                               ; preds = %84, %2
  %14 = load ptr, ptr %4, align 8
  %15 = getelementptr inbounds %struct.DdGen, ptr %14, i32 0, i32 4
  %16 = getelementptr inbounds %struct.anon.3, ptr %15, i32 0, i32 0
  %17 = load i32, ptr %16, align 8
  %18 = icmp eq i32 %17, 1
  br i1 %18, label %19, label %27

19:                                               ; preds = %13
  %20 = load ptr, ptr %4, align 8
  %21 = getelementptr inbounds %struct.DdGen, ptr %20, i32 0, i32 2
  store i32 0, ptr %21, align 4
  %22 = load ptr, ptr %4, align 8
  %23 = getelementptr inbounds %struct.DdGen, ptr %22, i32 0, i32 4
  %24 = getelementptr inbounds %struct.anon.3, ptr %23, i32 0, i32 0
  %25 = load i32, ptr %24, align 8
  %26 = add nsw i32 %25, -1
  store i32 %26, ptr %24, align 8
  br label %270

27:                                               ; preds = %13
  %28 = load ptr, ptr %4, align 8
  %29 = getelementptr inbounds %struct.DdGen, ptr %28, i32 0, i32 4
  %30 = getelementptr inbounds %struct.anon.3, ptr %29, i32 0, i32 1
  %31 = load ptr, ptr %30, align 8
  %32 = load ptr, ptr %4, align 8
  %33 = getelementptr inbounds %struct.DdGen, ptr %32, i32 0, i32 4
  %34 = getelementptr inbounds %struct.anon.3, ptr %33, i32 0, i32 0
  %35 = load i32, ptr %34, align 8
  %36 = sub nsw i32 %35, 1
  %37 = sext i32 %36 to i64
  %38 = getelementptr inbounds ptr, ptr %31, i64 %37
  %39 = load ptr, ptr %38, align 8
  store ptr %39, ptr %6, align 8
  %40 = load ptr, ptr %4, align 8
  %41 = getelementptr inbounds %struct.DdGen, ptr %40, i32 0, i32 4
  %42 = getelementptr inbounds %struct.anon.3, ptr %41, i32 0, i32 1
  %43 = load ptr, ptr %42, align 8
  %44 = load ptr, ptr %4, align 8
  %45 = getelementptr inbounds %struct.DdGen, ptr %44, i32 0, i32 4
  %46 = getelementptr inbounds %struct.anon.3, ptr %45, i32 0, i32 0
  %47 = load i32, ptr %46, align 8
  %48 = sub nsw i32 %47, 2
  %49 = sext i32 %48 to i64
  %50 = getelementptr inbounds ptr, ptr %43, i64 %49
  %51 = load ptr, ptr %50, align 8
  %52 = ptrtoint ptr %51 to i64
  %53 = and i64 %52, -2
  %54 = inttoptr i64 %53 to ptr
  store ptr %54, ptr %8, align 8
  %55 = load ptr, ptr %8, align 8
  %56 = getelementptr inbounds %struct.DdNode, ptr %55, i32 0, i32 3
  %57 = getelementptr inbounds %struct.DdChildren, ptr %56, i32 0, i32 0
  %58 = load ptr, ptr %57, align 8
  store ptr %58, ptr %7, align 8
  %59 = load ptr, ptr %7, align 8
  %60 = load ptr, ptr %6, align 8
  %61 = icmp ne ptr %59, %60
  br i1 %61, label %62, label %84

62:                                               ; preds = %27
  %63 = load ptr, ptr %4, align 8
  %64 = getelementptr inbounds %struct.DdGen, ptr %63, i32 0, i32 3
  %65 = getelementptr inbounds %struct.anon, ptr %64, i32 0, i32 0
  %66 = load ptr, ptr %65, align 8
  %67 = load ptr, ptr %8, align 8
  %68 = getelementptr inbounds %struct.DdNode, ptr %67, i32 0, i32 0
  %69 = load i32, ptr %68, align 8
  %70 = zext i32 %69 to i64
  %71 = getelementptr inbounds i32, ptr %66, i64 %70
  store i32 1, ptr %71, align 4
  %72 = load ptr, ptr %7, align 8
  %73 = load ptr, ptr %4, align 8
  %74 = getelementptr inbounds %struct.DdGen, ptr %73, i32 0, i32 4
  %75 = getelementptr inbounds %struct.anon.3, ptr %74, i32 0, i32 1
  %76 = load ptr, ptr %75, align 8
  %77 = load ptr, ptr %4, align 8
  %78 = getelementptr inbounds %struct.DdGen, ptr %77, i32 0, i32 4
  %79 = getelementptr inbounds %struct.anon.3, ptr %78, i32 0, i32 0
  %80 = load i32, ptr %79, align 8
  %81 = sub nsw i32 %80, 1
  %82 = sext i32 %81 to i64
  %83 = getelementptr inbounds ptr, ptr %76, i64 %82
  store ptr %72, ptr %83, align 8
  br label %99

84:                                               ; preds = %27
  %85 = load ptr, ptr %4, align 8
  %86 = getelementptr inbounds %struct.DdGen, ptr %85, i32 0, i32 3
  %87 = getelementptr inbounds %struct.anon, ptr %86, i32 0, i32 0
  %88 = load ptr, ptr %87, align 8
  %89 = load ptr, ptr %8, align 8
  %90 = getelementptr inbounds %struct.DdNode, ptr %89, i32 0, i32 0
  %91 = load i32, ptr %90, align 8
  %92 = zext i32 %91 to i64
  %93 = getelementptr inbounds i32, ptr %88, i64 %92
  store i32 2, ptr %93, align 4
  %94 = load ptr, ptr %4, align 8
  %95 = getelementptr inbounds %struct.DdGen, ptr %94, i32 0, i32 4
  %96 = getelementptr inbounds %struct.anon.3, ptr %95, i32 0, i32 0
  %97 = load i32, ptr %96, align 8
  %98 = add nsw i32 %97, -1
  store i32 %98, ptr %96, align 8
  br label %13

99:                                               ; preds = %62
  br label %100

100:                                              ; preds = %269, %99
  %101 = load ptr, ptr %4, align 8
  %102 = getelementptr inbounds %struct.DdGen, ptr %101, i32 0, i32 4
  %103 = getelementptr inbounds %struct.anon.3, ptr %102, i32 0, i32 1
  %104 = load ptr, ptr %103, align 8
  %105 = load ptr, ptr %4, align 8
  %106 = getelementptr inbounds %struct.DdGen, ptr %105, i32 0, i32 4
  %107 = getelementptr inbounds %struct.anon.3, ptr %106, i32 0, i32 0
  %108 = load i32, ptr %107, align 8
  %109 = sub nsw i32 %108, 1
  %110 = sext i32 %109 to i64
  %111 = getelementptr inbounds ptr, ptr %104, i64 %110
  %112 = load ptr, ptr %111, align 8
  store ptr %112, ptr %6, align 8
  %113 = load ptr, ptr %6, align 8
  %114 = ptrtoint ptr %113 to i64
  %115 = and i64 %114, -2
  %116 = inttoptr i64 %115 to ptr
  %117 = getelementptr inbounds %struct.DdNode, ptr %116, i32 0, i32 0
  %118 = load i32, ptr %117, align 8
  %119 = icmp eq i32 %118, 2147483647
  br i1 %119, label %159, label %120

120:                                              ; preds = %100
  %121 = load ptr, ptr %4, align 8
  %122 = getelementptr inbounds %struct.DdGen, ptr %121, i32 0, i32 3
  %123 = getelementptr inbounds %struct.anon, ptr %122, i32 0, i32 0
  %124 = load ptr, ptr %123, align 8
  %125 = load ptr, ptr %6, align 8
  %126 = ptrtoint ptr %125 to i64
  %127 = and i64 %126, -2
  %128 = inttoptr i64 %127 to ptr
  %129 = getelementptr inbounds %struct.DdNode, ptr %128, i32 0, i32 0
  %130 = load i32, ptr %129, align 8
  %131 = zext i32 %130 to i64
  %132 = getelementptr inbounds i32, ptr %124, i64 %131
  store i32 0, ptr %132, align 4
  %133 = load ptr, ptr %6, align 8
  %134 = ptrtoint ptr %133 to i64
  %135 = and i64 %134, -2
  %136 = inttoptr i64 %135 to ptr
  %137 = getelementptr inbounds %struct.DdNode, ptr %136, i32 0, i32 3
  %138 = getelementptr inbounds %struct.DdChildren, ptr %137, i32 0, i32 1
  %139 = load ptr, ptr %138, align 8
  store ptr %139, ptr %7, align 8
  %140 = load ptr, ptr %7, align 8
  %141 = ptrtoint ptr %140 to i64
  %142 = xor i64 %141, 1
  %143 = inttoptr i64 %142 to ptr
  %144 = load ptr, ptr %4, align 8
  %145 = getelementptr inbounds %struct.DdGen, ptr %144, i32 0, i32 4
  %146 = getelementptr inbounds %struct.anon.3, ptr %145, i32 0, i32 1
  %147 = load ptr, ptr %146, align 8
  %148 = load ptr, ptr %4, align 8
  %149 = getelementptr inbounds %struct.DdGen, ptr %148, i32 0, i32 4
  %150 = getelementptr inbounds %struct.anon.3, ptr %149, i32 0, i32 0
  %151 = load i32, ptr %150, align 8
  %152 = sext i32 %151 to i64
  %153 = getelementptr inbounds ptr, ptr %147, i64 %152
  store ptr %143, ptr %153, align 8
  %154 = load ptr, ptr %4, align 8
  %155 = getelementptr inbounds %struct.DdGen, ptr %154, i32 0, i32 4
  %156 = getelementptr inbounds %struct.anon.3, ptr %155, i32 0, i32 0
  %157 = load i32, ptr %156, align 8
  %158 = add nsw i32 %157, 1
  store i32 %158, ptr %156, align 8
  br label %269

159:                                              ; preds = %100
  %160 = load ptr, ptr %6, align 8
  %161 = ptrtoint ptr %160 to i64
  %162 = and i64 %161, -2
  %163 = inttoptr i64 %162 to ptr
  %164 = load ptr, ptr %9, align 8
  %165 = getelementptr inbounds %struct.DdManager, ptr %164, i32 0, i32 2
  %166 = load ptr, ptr %165, align 8
  %167 = icmp eq ptr %163, %166
  br i1 %167, label %168, label %256

168:                                              ; preds = %159
  br label %169

169:                                              ; preds = %228, %168
  %170 = load ptr, ptr %4, align 8
  %171 = getelementptr inbounds %struct.DdGen, ptr %170, i32 0, i32 4
  %172 = getelementptr inbounds %struct.anon.3, ptr %171, i32 0, i32 0
  %173 = load i32, ptr %172, align 8
  %174 = icmp eq i32 %173, 1
  br i1 %174, label %175, label %183

175:                                              ; preds = %169
  %176 = load ptr, ptr %4, align 8
  %177 = getelementptr inbounds %struct.DdGen, ptr %176, i32 0, i32 2
  store i32 0, ptr %177, align 4
  %178 = load ptr, ptr %4, align 8
  %179 = getelementptr inbounds %struct.DdGen, ptr %178, i32 0, i32 4
  %180 = getelementptr inbounds %struct.anon.3, ptr %179, i32 0, i32 0
  %181 = load i32, ptr %180, align 8
  %182 = add nsw i32 %181, -1
  store i32 %182, ptr %180, align 8
  br label %270

183:                                              ; preds = %169
  %184 = load ptr, ptr %4, align 8
  %185 = getelementptr inbounds %struct.DdGen, ptr %184, i32 0, i32 4
  %186 = getelementptr inbounds %struct.anon.3, ptr %185, i32 0, i32 1
  %187 = load ptr, ptr %186, align 8
  %188 = load ptr, ptr %4, align 8
  %189 = getelementptr inbounds %struct.DdGen, ptr %188, i32 0, i32 4
  %190 = getelementptr inbounds %struct.anon.3, ptr %189, i32 0, i32 0
  %191 = load i32, ptr %190, align 8
  %192 = sub nsw i32 %191, 2
  %193 = sext i32 %192 to i64
  %194 = getelementptr inbounds ptr, ptr %187, i64 %193
  %195 = load ptr, ptr %194, align 8
  %196 = ptrtoint ptr %195 to i64
  %197 = and i64 %196, -2
  %198 = inttoptr i64 %197 to ptr
  store ptr %198, ptr %8, align 8
  %199 = load ptr, ptr %8, align 8
  %200 = getelementptr inbounds %struct.DdNode, ptr %199, i32 0, i32 3
  %201 = getelementptr inbounds %struct.DdChildren, ptr %200, i32 0, i32 0
  %202 = load ptr, ptr %201, align 8
  store ptr %202, ptr %7, align 8
  %203 = load ptr, ptr %7, align 8
  %204 = load ptr, ptr %6, align 8
  %205 = icmp ne ptr %203, %204
  br i1 %205, label %206, label %228

206:                                              ; preds = %183
  %207 = load ptr, ptr %4, align 8
  %208 = getelementptr inbounds %struct.DdGen, ptr %207, i32 0, i32 3
  %209 = getelementptr inbounds %struct.anon, ptr %208, i32 0, i32 0
  %210 = load ptr, ptr %209, align 8
  %211 = load ptr, ptr %8, align 8
  %212 = getelementptr inbounds %struct.DdNode, ptr %211, i32 0, i32 0
  %213 = load i32, ptr %212, align 8
  %214 = zext i32 %213 to i64
  %215 = getelementptr inbounds i32, ptr %210, i64 %214
  store i32 1, ptr %215, align 4
  %216 = load ptr, ptr %7, align 8
  %217 = load ptr, ptr %4, align 8
  %218 = getelementptr inbounds %struct.DdGen, ptr %217, i32 0, i32 4
  %219 = getelementptr inbounds %struct.anon.3, ptr %218, i32 0, i32 1
  %220 = load ptr, ptr %219, align 8
  %221 = load ptr, ptr %4, align 8
  %222 = getelementptr inbounds %struct.DdGen, ptr %221, i32 0, i32 4
  %223 = getelementptr inbounds %struct.anon.3, ptr %222, i32 0, i32 0
  %224 = load i32, ptr %223, align 8
  %225 = sub nsw i32 %224, 1
  %226 = sext i32 %225 to i64
  %227 = getelementptr inbounds ptr, ptr %220, i64 %226
  store ptr %216, ptr %227, align 8
  br label %255

228:                                              ; preds = %183
  %229 = load ptr, ptr %4, align 8
  %230 = getelementptr inbounds %struct.DdGen, ptr %229, i32 0, i32 3
  %231 = getelementptr inbounds %struct.anon, ptr %230, i32 0, i32 0
  %232 = load ptr, ptr %231, align 8
  %233 = load ptr, ptr %8, align 8
  %234 = getelementptr inbounds %struct.DdNode, ptr %233, i32 0, i32 0
  %235 = load i32, ptr %234, align 8
  %236 = zext i32 %235 to i64
  %237 = getelementptr inbounds i32, ptr %232, i64 %236
  store i32 2, ptr %237, align 4
  %238 = load ptr, ptr %4, align 8
  %239 = getelementptr inbounds %struct.DdGen, ptr %238, i32 0, i32 4
  %240 = getelementptr inbounds %struct.anon.3, ptr %239, i32 0, i32 0
  %241 = load i32, ptr %240, align 8
  %242 = add nsw i32 %241, -1
  store i32 %242, ptr %240, align 8
  %243 = load ptr, ptr %4, align 8
  %244 = getelementptr inbounds %struct.DdGen, ptr %243, i32 0, i32 4
  %245 = getelementptr inbounds %struct.anon.3, ptr %244, i32 0, i32 1
  %246 = load ptr, ptr %245, align 8
  %247 = load ptr, ptr %4, align 8
  %248 = getelementptr inbounds %struct.DdGen, ptr %247, i32 0, i32 4
  %249 = getelementptr inbounds %struct.anon.3, ptr %248, i32 0, i32 0
  %250 = load i32, ptr %249, align 8
  %251 = sub nsw i32 %250, 1
  %252 = sext i32 %251 to i64
  %253 = getelementptr inbounds ptr, ptr %246, i64 %252
  %254 = load ptr, ptr %253, align 8
  store ptr %254, ptr %6, align 8
  br label %169

255:                                              ; preds = %206
  br label %268

256:                                              ; preds = %159
  %257 = load ptr, ptr %4, align 8
  %258 = getelementptr inbounds %struct.DdGen, ptr %257, i32 0, i32 2
  store i32 1, ptr %258, align 4
  %259 = load ptr, ptr %6, align 8
  %260 = ptrtoint ptr %259 to i64
  %261 = and i64 %260, -2
  %262 = inttoptr i64 %261 to ptr
  %263 = getelementptr inbounds %struct.DdNode, ptr %262, i32 0, i32 3
  %264 = load double, ptr %263, align 8
  %265 = load ptr, ptr %4, align 8
  %266 = getelementptr inbounds %struct.DdGen, ptr %265, i32 0, i32 3
  %267 = getelementptr inbounds %struct.anon, ptr %266, i32 0, i32 1
  store double %264, ptr %267, align 8
  br label %270

268:                                              ; preds = %255
  br label %269

269:                                              ; preds = %268, %120
  br label %100

270:                                              ; preds = %256, %175, %19
  %271 = load ptr, ptr %4, align 8
  %272 = getelementptr inbounds %struct.DdGen, ptr %271, i32 0, i32 2
  %273 = load i32, ptr %272, align 4
  %274 = icmp eq i32 %273, 0
  br i1 %274, label %275, label %276

275:                                              ; preds = %270
  store i32 0, ptr %3, align 4
  br label %282

276:                                              ; preds = %270
  %277 = load ptr, ptr %4, align 8
  %278 = getelementptr inbounds %struct.DdGen, ptr %277, i32 0, i32 3
  %279 = getelementptr inbounds %struct.anon, ptr %278, i32 0, i32 0
  %280 = load ptr, ptr %279, align 8
  %281 = load ptr, ptr %5, align 8
  store ptr %280, ptr %281, align 8
  store i32 1, ptr %3, align 4
  br label %282

282:                                              ; preds = %276, %275
  %283 = load i32, ptr %3, align 4
  ret i32 %283
}