; Function Attrs: nofree norecurse nosync nounwind memory(readwrite, inaccessiblemem: none) uwtable
define range(i32 0, 2) i32 @Cudd_zddNextPath(ptr noundef captures(none) %0, ptr noundef writeonly captures(none) %1) local_unnamed_addr #6 {
  %3 = load ptr, ptr %0, align 8
  %4 = getelementptr inbounds nuw i8, ptr %0, i64 32
  %5 = load i32, ptr %4, align 8
  %6 = icmp eq i32 %5, 1
  br i1 %6, label %._crit_edge, label %.lr.ph

.lr.ph:                                           ; preds = %2
  %7 = getelementptr inbounds nuw i8, ptr %0, i64 40
  %8 = getelementptr inbounds nuw i8, ptr %0, i64 16
  br label %10

._crit_edge:                                      ; preds = %35, %2
  %9 = getelementptr inbounds nuw i8, ptr %0, i64 12
  store i32 0, ptr %9, align 4
  store i32 0, ptr %4, align 8
  br label %.thread

10:                                               ; preds = %.lr.ph, %35
  %11 = phi i32 [ %5, %.lr.ph ], [ %37, %35 ]
  %12 = load ptr, ptr %7, align 8
  %13 = sext i32 %11 to i64
  %14 = getelementptr ptr, ptr %12, i64 %13
  %15 = getelementptr i8, ptr %14, i64 -8
  %16 = load ptr, ptr %15, align 8
  %17 = getelementptr i8, ptr %14, i64 -16
  %18 = load ptr, ptr %17, align 8
  %19 = ptrtoint ptr %18 to i64
  %20 = and i64 %19, -2
  %21 = inttoptr i64 %20 to ptr
  %22 = getelementptr inbounds nuw i8, ptr %21, i64 16
  %23 = load ptr, ptr %22, align 8
  %.not = icmp eq ptr %23, %16
  %24 = load ptr, ptr %8, align 8
  %25 = load i32, ptr %21, align 8
  %26 = zext i32 %25 to i64
  %27 = getelementptr inbounds nuw i32, ptr %24, i64 %26
  br i1 %.not, label %35, label %28

28:                                               ; preds = %10
  store i32 1, ptr %27, align 4
  %29 = load ptr, ptr %7, align 8
  %30 = load i32, ptr %4, align 8
  %31 = sext i32 %30 to i64
  %32 = getelementptr ptr, ptr %29, i64 %31
  %33 = getelementptr i8, ptr %32, i64 -8
  store ptr %23, ptr %33, align 8
  %34 = getelementptr inbounds nuw i8, ptr %3, i64 48
  br label %39

35:                                               ; preds = %10
  store i32 2, ptr %27, align 4
  %36 = load i32, ptr %4, align 8
  %37 = add nsw i32 %36, -1
  store i32 %37, ptr %4, align 8
  %38 = icmp eq i32 %37, 1
  br i1 %38, label %._crit_edge, label %10

39:                                               ; preds = %.backedge, %28
  %40 = load ptr, ptr %7, align 8
  %41 = load i32, ptr %4, align 8
  %42 = sext i32 %41 to i64
  %43 = getelementptr ptr, ptr %40, i64 %42
  %44 = getelementptr i8, ptr %43, i64 -8
  %45 = load ptr, ptr %44, align 8
  %46 = ptrtoint ptr %45 to i64
  %47 = and i64 %46, -2
  %48 = inttoptr i64 %47 to ptr
  %49 = load i32, ptr %48, align 8
  %50 = icmp eq i32 %49, 2147483647
  br i1 %50, label %66, label %51

51:                                               ; preds = %39
  %52 = load ptr, ptr %8, align 8
  %53 = zext i32 %49 to i64
  %54 = getelementptr inbounds nuw i32, ptr %52, i64 %53
  store i32 0, ptr %54, align 4
  %55 = getelementptr inbounds nuw i8, ptr %48, i64 24
  %56 = load ptr, ptr %55, align 8
  %57 = ptrtoint ptr %56 to i64
  %58 = xor i64 %57, 1
  %59 = inttoptr i64 %58 to ptr
  %60 = load ptr, ptr %7, align 8
  %61 = load i32, ptr %4, align 8
  %62 = sext i32 %61 to i64
  %63 = getelementptr inbounds ptr, ptr %60, i64 %62
  store ptr %59, ptr %63, align 8
  %64 = load i32, ptr %4, align 8
  %65 = add nsw i32 %64, 1
  store i32 %65, ptr %4, align 8
  br label %.backedge

66:                                               ; preds = %39
  %67 = load ptr, ptr %34, align 8
  %68 = icmp eq ptr %67, %48
  br i1 %68, label %.preheader, label %101

.preheader:                                       ; preds = %66
  %69 = icmp eq i32 %41, 1
  br i1 %69, label %.preheader._crit_edge, label %.lr.ph77

.preheader._crit_edge:                            ; preds = %.preheader, %92
  %70 = getelementptr inbounds nuw i8, ptr %0, i64 12
  store i32 0, ptr %70, align 4
  store i32 0, ptr %4, align 8
  br label %.thread

.lr.ph77:                                         ; preds = %.preheader, %92
  %71 = phi ptr [ %95, %92 ], [ %40, %.preheader ]
  %72 = phi i32 [ %94, %92 ], [ %41, %.preheader ]
  %.05576 = phi ptr [ %99, %92 ], [ %45, %.preheader ]
  %73 = sext i32 %72 to i64
  %74 = getelementptr ptr, ptr %71, i64 %73
  %75 = getelementptr i8, ptr %74, i64 -16
  %76 = load ptr, ptr %75, align 8
  %77 = ptrtoint ptr %76 to i64
  %78 = and i64 %77, -2
  %79 = inttoptr i64 %78 to ptr
  %80 = getelementptr inbounds nuw i8, ptr %79, i64 16
  %81 = load ptr, ptr %80, align 8
  %.not62 = icmp eq ptr %81, %.05576
  %82 = load ptr, ptr %8, align 8
  %83 = load i32, ptr %79, align 8
  %84 = zext i32 %83 to i64
  %85 = getelementptr inbounds nuw i32, ptr %82, i64 %84
  br i1 %.not62, label %92, label %86

86:                                               ; preds = %.lr.ph77
  store i32 1, ptr %85, align 4
  %87 = load ptr, ptr %7, align 8
  %88 = load i32, ptr %4, align 8
  %89 = sext i32 %88 to i64
  %90 = getelementptr ptr, ptr %87, i64 %89
  %91 = getelementptr i8, ptr %90, i64 -8
  store ptr %81, ptr %91, align 8
  br label %.backedge

.backedge:                                        ; preds = %86, %51
  br label %39

92:                                               ; preds = %.lr.ph77
  store i32 2, ptr %85, align 4
  %93 = load i32, ptr %4, align 8
  %94 = add nsw i32 %93, -1
  store i32 %94, ptr %4, align 8
  %95 = load ptr, ptr %7, align 8
  %96 = sext i32 %93 to i64
  %97 = getelementptr ptr, ptr %95, i64 %96
  %98 = getelementptr i8, ptr %97, i64 -16
  %99 = load ptr, ptr %98, align 8
  %100 = icmp eq i32 %94, 1
  br i1 %100, label %.preheader._crit_edge, label %.lr.ph77

101:                                              ; preds = %66
  %102 = getelementptr inbounds nuw i8, ptr %0, i64 12
  store i32 1, ptr %102, align 4
  %103 = getelementptr inbounds nuw i8, ptr %48, i64 16
  %104 = load double, ptr %103, align 8
  %105 = getelementptr inbounds nuw i8, ptr %0, i64 24
  store double %104, ptr %105, align 8
  %106 = getelementptr inbounds nuw i8, ptr %0, i64 16
  %107 = load ptr, ptr %106, align 8
  store ptr %107, ptr %1, align 8
  br label %.thread

.thread:                                          ; preds = %._crit_edge, %.preheader._crit_edge, %101
  %.0 = phi i32 [ 1, %101 ], [ 0, %.preheader._crit_edge ], [ 0, %._crit_edge ]
  ret i32 %.0
}